target datalayout = "e-m:e-p270:32:32-p271:32:32-p272:64:64-i64:64-i128:128-f80:128-n8:16:32:64-S128"
target triple = "x86_64-pc-linux-gnu"

%class.Register = type { i32 }

@.str = private unnamed_addr constant [42 x i8] c"src/hotspot/cpu/x86/templateTable_x86.cpp\00", align 1
@_ZN13TemplateTable5_masmE = external global ptr, align 8
@_ZL3rax = internal constant %class.Register zeroinitializer, align 4
@PrintInterpreter = external global i8, align 1

; Function Attrs: mustprogress nounwind uwtable
define linkonce_odr hidden noundef ptr @_ZN12Disassembler4hookI25InterpreterMacroAssemblerEEPT_PKciS3_(ptr noundef %0, i32 noundef %1, ptr noundef %2) #1 comdat align 2 {
  %4 = alloca ptr, align 8
  %5 = alloca i32, align 4
  %6 = alloca ptr, align 8
  store ptr %0, ptr %4, align 8
  store i32 %1, ptr %5, align 4
  store ptr %2, ptr %6, align 8
  %7 = load i8, ptr @PrintInterpreter, align 1
  %8 = trunc i8 %7 to i1
  br i1 %8, label %9, label %13

9:                                                ; preds = %3
  %10 = load ptr, ptr %4, align 8
  %11 = load i32, ptr %5, align 4
  %12 = load ptr, ptr %6, align 8
  call void @_ZN12Disassembler5_hookEPKciP14MacroAssembler(ptr noundef %10, i32 noundef %11, ptr noundef %12)
  br label %13

13:                                               ; preds = %9, %3
  %14 = load ptr, ptr %6, align 8
  ret ptr %14
}

; Function Attrs: mustprogress nounwind uwtable
define hidden void @_ZN13TemplateTable6iconstEi(i32 noundef %0) #1 align 2 {
  %2 = alloca i32, align 4
  %3 = alloca %class.Register, align 4
  %4 = alloca %class.Register, align 4
  %5 = alloca %class.Register, align 4
  store i32 %0, ptr %2, align 4
  call void @_ZN13TemplateTable10transitionE8TosStateS0_(i32 noundef 9, i32 noundef 4)
  %6 = load i32, ptr %2, align 4
  %7 = icmp eq i32 %6, 0
  br i1 %7, label %8, label %15

8:                                                ; preds = %1
  %9 = load ptr, ptr @_ZN13TemplateTable5_masmE, align 8
  %10 = call noundef ptr @_ZN12Disassembler4hookI25InterpreterMacroAssemblerEEPT_PKciS3_(ptr noundef @.str, i32 noundef 276, ptr noundef %9)
  call void @llvm.memcpy.p0.p0.i64(ptr align 4 %3, ptr align 4 @_ZL3rax, i64 4, i1 false)
  call void @llvm.memcpy.p0.p0.i64(ptr align 4 %4, ptr align 4 @_ZL3rax, i64 4, i1 false)
  %11 = getelementptr inbounds %class.Register, ptr %3, i32 0, i32 0
  %12 = load i32, ptr %11, align 4
  %13 = getelementptr inbounds %class.Register, ptr %4, i32 0, i32 0
  %14 = load i32, ptr %13, align 4
  call void @_ZN9Assembler4xorlE8RegisterS0_(ptr noundef nonnull align 8 dereferenceable(40) %10, i32 %12, i32 %14)
  br label %21

15:                                               ; preds = %1
  %16 = load ptr, ptr @_ZN13TemplateTable5_masmE, align 8
  %17 = call noundef ptr @_ZN12Disassembler4hookI25InterpreterMacroAssemblerEEPT_PKciS3_(ptr noundef @.str, i32 noundef 278, ptr noundef %16)
  call void @llvm.memcpy.p0.p0.i64(ptr align 4 %5, ptr align 4 @_ZL3rax, i64 4, i1 false)
  %18 = load i32, ptr %2, align 4
  %19 = getelementptr inbounds %class.Register, ptr %5, i32 0, i32 0
  %20 = load i32, ptr %19, align 4
  call void @_ZN9Assembler4movlE8Registeri(ptr noundef nonnull align 8 dereferenceable(40) %17, i32 %20, i32 noundef %18)
  br label %21

21:                                               ; preds = %15, %8
  ret void
}